(imodel
ModelPersist
p0
(dp1
S'bestgame'
p2
I620
sS'num_owners'
p3
I7923864
sS'highest_score'
p4
cnumpy.core.multiarray
scalar
p5
(cnumpy
dtype
p6
(S'f8'
p7
I0
I1
tp8
Rp9
(I3
S'<'
p10
NNNI-1
I-1
I0
tp11
bS'\xc4\xdf\xc8$\x15\xa2:@'
p12
tp13
Rp14
sS'names'
p15
(dp16
I105600
S'Terraria'
p17
sI203140
S'Hitman: Absolution\xe2\x84\xa2'
p18
sI218620
S'PAYDAY 2'
p19
sI205100
S'Dishonored'
p20
sI230410
S'Warframe'
p21
sI2700
S'RollerCoaster Tycoon\xc2\xae 3: Platinum'
p22
sI236430
S'DARK SOULS\xe2\x84\xa2 II'
p23
sI400
S'Portal'
p24
sI72850
S'The Elder Scrolls V: Skyrim'
p25
sI4000
S"Garry's Mod"
p26
sI212070
S'Star Conflict'
p27
sI550
S'Left 4 Dead 2'
p28
sI262060
S'Darkest Dungeon'
p29
sI113200
S'The Binding of Isaac'
p30
sI212680
S'FTL: Faster Than Light'
p31
sI247730
S'Nether: Resurrected'
p32
sI233610
S'Distance'
p33
sI216250
S'Dead Island Riptide'
p34
sI33930
S'Arma 2: Operation Arrowhead'
p35
sI55230
S'Saints Row: The Third'
p36
sI241600
S'Rogue Legacy'
p37
sI214560
S'Mark of the Ninja'
p38
sI3910
S"Sid Meier's Civilization\xc2\xae III Complete"
p39
sI377160
S'Fallout 4'
p40
sI1250
S'Killing Floor'
p41
sI12750
S'GRID\xe2\x84\xa2'
p42
sI263760
S'Turbo Dismount\xe2\x84\xa2'
p43
sI57300
S'Amnesia: The Dark Descent'
p44
sI247020
S'Cook, Serve, Delicious!'
p45
sI12900
S'AudioSurf'
p46
sI730
S'Counter-Strike: Global Offensive'
p47
sI219740
S"Don't Starve"
p48
sI22330
S'The Elder Scrolls IV: Oblivion\xc2\xae Game of the Year Edition'
p49
sI238010
S"Deus Ex: Human Revolution - Director's Cut"
p50
sI40800
S'Super Meat Boy'
p51
sI301520
S'Robocraft'
p52
sI8930
S"Sid Meier's Civilization\xc2\xae V"
p53
sI227300
S'Euro Truck Simulator 2'
p54
sI8870
S'BioShock Infinite'
p55
sI271590
S'Grand Theft Auto V'
p56
sI204880
S'Sins of a Solar Empire\xc2\xae: Rebellion'
p57
sI22380
S'Fallout: New Vegas'
p58
sI620
S'Portal 2'
p59
sI292030
S'The Witcher\xc2\xae 3: Wild Hunt'
p60
sI49520
S'Borderlands 2'
p61
sI244850
S'Space Engineers'
p62
sI211820
S'Starbound'
p63
sI500
S'Left 4 Dead'
p64
sI200510
S'XCOM: Enemy Unknown'
p65
sI240760
S"Wasteland 2: Director's Cut"
p66
sI287700
S'METAL GEAR SOLID V: THE PHANTOM PAIN'
p67
sI35450
S'Red Orchestra 2: Heroes of Stalingrad with Rising Storm'
p68
sI238460
S'BattleBlock Theater\xc2\xae'
p69
sI8190
S'Just Cause 2'
p70
sI202170
S'Sleeping Dogs'
p71
ssb.