(imodel
ModelPersist
p0
(dp1
S'bestgame'
p2
I620
sS'num_owners'
p3
I7923864
sS'highest_score'
p4
cnumpy.core.multiarray
scalar
p5
(cnumpy
dtype
p6
(S'f8'
p7
I0
I1
tp8
Rp9
(I3
S'<'
p10
NNNI-1
I-1
I0
tp11
bS'\xc4\xdf\xc8$\x15\xa2:@'
p12
tp13
Rp14
sS'names'
p15
(dp16
I105600
S'Terraria'
p17
sI203140
S'Hitman: Absolution\xe2\x84\xa2'
p18
sI247020
S'Cook, Serve, Delicious!'
p19
sI230410
S'Warframe'
p20
sI2700
S'RollerCoaster Tycoon\xc2\xae 3: Platinum'
p21
sI400
S'Portal'
p22
sI72850
S'The Elder Scrolls V: Skyrim'
p23
sI4000
S"Garry's Mod"
p24
sI550
S'Left 4 Dead 2'
p25
sI205100
S'Dishonored'
p26
sI212680
S'FTL: Faster Than Light'
p27
sI247730
S'Nether: Resurrected'
p28
sI233610
S'Distance'
p29
sI216250
S'Dead Island Riptide'
p30
sI33930
S'Arma 2: Operation Arrowhead'
p31
sI55230
S'Saints Row: The Third'
p32
sI214560
S'Mark of the Ninja'
p33
sI377160
S'Fallout 4'
p34
sI1250
S'Killing Floor'
p35
sI12750
S'GRID\xe2\x84\xa2'
p36
sI263760
S'Turbo Dismount\xe2\x84\xa2'
p37
sI57300
S'Amnesia: The Dark Descent'
p38
sI12900
S'AudioSurf'
p39
sI730
S'Counter-Strike: Global Offensive'
p40
sI22330
S'The Elder Scrolls IV: Oblivion\xc2\xae Game of the Year Edition'
p41
sI238010
S"Deus Ex: Human Revolution - Director's Cut"
p42
sI301520
S'Robocraft'
p43
sI8930
S"Sid Meier's Civilization\xc2\xae V"
p44
sI227300
S'Euro Truck Simulator 2'
p45
sI212070
S'Star Conflict'
p46
sI271590
S'Grand Theft Auto V'
p47
sI204880
S'Sins of a Solar Empire\xc2\xae: Rebellion'
p48
sI218620
S'PAYDAY 2'
p49
sI620
S'Portal 2'
p50
sI49520
S'Borderlands 2'
p51
sI244850
S'Space Engineers'
p52
sI211820
S'Starbound'
p53
sI500
S'Left 4 Dead'
p54
sI238460
S'BattleBlock Theater\xc2\xae'
p55
sI8190
S'Just Cause 2'
p56
sI202170
S'Sleeping Dogs'
p57
ssb.