(imodel
ModelPersist
p0
(dp1
S'bestgame'
p2
I620
sS'num_owners'
p3
I7923864
sS'highest_score'
p4
cnumpy.core.multiarray
scalar
p5
(cnumpy
dtype
p6
(S'f8'
p7
I0
I1
tp8
Rp9
(I3
S'<'
p10
NNNI-1
I-1
I0
tp11
bS'\xc4\xdf\xc8$\x15\xa2:@'
p12
tp13
Rp14
sS'names'
p15
(dp16
I105600
S'Terraria'
p17
sI620
S'Portal 2'
p18
sI203140
S'Hitman: Absolution\xe2\x84\xa2'
p19
sI262060
S'Darkest Dungeon'
p20
sI230410
S'Warframe'
p21
sI2700
S'RollerCoaster Tycoon\xc2\xae 3: Platinum'
p22
sI236430
S'DARK SOULS\xe2\x84\xa2 II'
p23
sI400
S'Portal'
p24
sI72850
S'The Elder Scrolls V: Skyrim'
p25
sI4000
S"Garry's Mod"
p26
sI271590
S'Grand Theft Auto V'
p27
sI550
S'Left 4 Dead 2'
p28
sI238460
S'BattleBlock Theater\xc2\xae'
p29
sI205100
S'Dishonored'
p30
sI113200
S'The Binding of Isaac'
p31
sI377160
S'Fallout 4'
p32
sI247730
S'Nether: Resurrected'
p33
sI233610
S'Distance'
p34
sI216250
S'Dead Island Riptide'
p35
sI33930
S'Arma 2: Operation Arrowhead'
p36
sI55230
S'Saints Row: The Third'
p37
sI241600
S'Rogue Legacy'
p38
sI214560
S'Mark of the Ninja'
p39
sI200510
S'XCOM: Enemy Unknown'
p40
sI3910
S"Sid Meier's Civilization\xc2\xae III Complete"
p41
sI212680
S'FTL: Faster Than Light'
p42
sI8930
S"Sid Meier's Civilization\xc2\xae V"
p43
sI12750
S'GRID\xe2\x84\xa2'
p44
sI263760
S'Turbo Dismount\xe2\x84\xa2'
p45
sI57300
S'Amnesia: The Dark Descent'
p46
sI227300
S'Euro Truck Simulator 2'
p47
sI730
S'Counter-Strike: Global Offensive'
p48
sI219740
S"Don't Starve"
p49
sI22330
S'The Elder Scrolls IV: Oblivion\xc2\xae Game of the Year Edition'
p50
sI238010
S"Deus Ex: Human Revolution - Director's Cut"
p51
sI40800
S'Super Meat Boy'
p52
sI301520
S'Robocraft'
p53
sI1250
S'Killing Floor'
p54
sI12900
S'AudioSurf'
p55
sI8870
S'BioShock Infinite'
p56
sI212070
S'Star Conflict'
p57
sI204880
S'Sins of a Solar Empire\xc2\xae: Rebellion'
p58
sI22380
S'Fallout: New Vegas'
p59
sI247020
S'Cook, Serve, Delicious!'
p60
sI49520
S'Borderlands 2'
p61
sI244850
S'Space Engineers'
p62
sI211820
S'Starbound'
p63
sI500
S'Left 4 Dead'
p64
sI292030
S'The Witcher\xc2\xae 3: Wild Hunt'
p65
sI240760
S"Wasteland 2: Director's Cut"
p66
sI287700
S'METAL GEAR SOLID V: THE PHANTOM PAIN'
p67
sI35450
S'Red Orchestra 2: Heroes of Stalingrad with Rising Storm'
p68
sI218620
S'PAYDAY 2'
p69
sI8190
S'Just Cause 2'
p70
sI202170
S'Sleeping Dogs'
p71
ssb.